; Function Attrs: nounwind uwtable
define internal void @SDL_PS5PlayerLEDHintChanged(ptr noundef captures(none) %0, ptr readnone captures(none) %1, ptr readnone captures(none) %2, ptr noundef %3) #0 {
  %5 = alloca %struct.DS5EffectsState_t, align 1
  %6 = tail call zeroext i1 @SDL_GetStringBoolean(ptr noundef %3, i1 noundef zeroext true) #9
  %7 = getelementptr inbounds nuw i8, ptr %0, i64 100
  %8 = load i8, ptr %7, align 4, !range !5, !noundef !6
  %9 = zext i1 %6 to i8
  %.not = icmp eq i8 %8, %9
  br i1 %.not, label %69, label %10

10:                                               ; preds = %4
  store i8 %9, ptr %7, align 4
  call void @llvm.lifetime.start.p0(i64 47, ptr nonnull %5) #9
  %11 = load ptr, ptr %0, align 8
  %12 = getelementptr inbounds nuw i8, ptr %11, i64 84
  %13 = load i8, ptr %12, align 4, !range !5, !noundef !6
  %14 = trunc nuw i8 %13 to i1
  br i1 %14, label %15, label %23

15:                                               ; preds = %10
  %16 = getelementptr inbounds nuw i8, ptr %0, i64 28
  %17 = load i8, ptr %16, align 4, !range !5, !noundef !6
  %18 = trunc nuw i8 %17 to i1
  br i1 %18, label %19, label %23

19:                                               ; preds = %15
  %20 = getelementptr inbounds nuw i8, ptr %0, i64 108
  %21 = load i32, ptr %20, align 4
  %.not30.i = icmp eq i32 %21, 2
  br i1 %.not30.i, label %23, label %22

22:                                               ; preds = %19
  store i32 1, ptr %20, align 4
  br label %HIDAPI_DriverPS5_UpdateEffects.exit

23:                                               ; preds = %19, %15, %10
  call void @llvm.memset.p0.i64(ptr noundef nonnull align 1 dereferenceable(47) %5, i8 0, i64 47, i1 false)
  %24 = getelementptr inbounds nuw i8, ptr %0, i64 20
  %25 = load i8, ptr %24, align 4, !range !5, !noundef !6
  %26 = trunc nuw i8 %25 to i1
  br i1 %26, label %27, label %50

27:                                               ; preds = %23
  %28 = getelementptr inbounds nuw i8, ptr %0, i64 101
  %29 = load i8, ptr %28, align 1
  %.not31.i = icmp eq i8 %29, 0
  br i1 %.not31.i, label %30, label %33

30:                                               ; preds = %27
  %31 = getelementptr inbounds nuw i8, ptr %0, i64 102
  %32 = load i8, ptr %31, align 2
  %.not32.i = icmp eq i8 %32, 0
  br i1 %.not32.i, label %50, label %33

33:                                               ; preds = %30, %27
  %34 = getelementptr inbounds nuw i8, ptr %0, i64 84
  %35 = load i16, ptr %34, align 4
  %36 = icmp ult i16 %35, 548
  br i1 %36, label %37, label %42

37:                                               ; preds = %33
  %38 = lshr i8 %29, 1
  %39 = getelementptr inbounds nuw i8, ptr %0, i64 102
  %40 = load i8, ptr %39, align 2
  %41 = lshr i8 %40, 1
  br label %46

42:                                               ; preds = %33
  %43 = getelementptr inbounds nuw i8, ptr %5, i64 38
  store i8 4, ptr %43, align 1
  %44 = getelementptr inbounds nuw i8, ptr %0, i64 102
  %45 = load i8, ptr %44, align 2
  br label %46

46:                                               ; preds = %42, %37
  %47 = phi i8 [ 3, %37 ], [ 2, %42 ]
  %.sink40.i = phi i8 [ %38, %37 ], [ %29, %42 ]
  %.sink.i = phi i8 [ %41, %37 ], [ %45, %42 ]
  %48 = getelementptr inbounds nuw i8, ptr %5, i64 3
  store i8 %.sink40.i, ptr %48, align 1
  %49 = getelementptr inbounds nuw i8, ptr %5, i64 2
  store i8 %.sink.i, ptr %49, align 1
  store i8 %47, ptr %5, align 1
  br label %50

50:                                               ; preds = %23, %46, %30
  %51 = getelementptr inbounds nuw i8, ptr %0, i64 21
  %52 = load i8, ptr %51, align 1, !range !5, !noundef !6
  %53 = trunc nuw i8 %52 to i1
  br i1 %53, label %54, label %67

54:                                               ; preds = %50
  %55 = getelementptr inbounds nuw i8, ptr %5, i64 1
  store i8 16, ptr %55, align 1
  br i1 %6, label %56, label %.sink.split43.i

56:                                               ; preds = %54
  %57 = getelementptr inbounds nuw i8, ptr %0, i64 96
  %58 = load i32, ptr %57, align 8
  %59 = icmp sgt i32 %58, -1
  br i1 %59, label %60, label %.sink.split43.i

60:                                               ; preds = %56
  %61 = urem i32 %58, 5
  %62 = zext nneg i32 %61 to i64
  %63 = getelementptr inbounds nuw [5 x i8], ptr @SetLightsForPlayerIndex.lights, i64 0, i64 %62
  %64 = load i8, ptr %63, align 1
  %65 = or i8 %64, 32
  br label %.sink.split43.i

.sink.split43.i:                                  ; preds = %60, %56, %54
  %.sink.i.sink.i = phi i8 [ %65, %60 ], [ 0, %56 ], [ 0, %54 ]
  %66 = getelementptr inbounds nuw i8, ptr %5, i64 43
  store i8 %.sink.i.sink.i, ptr %66, align 1
  br label %67

67:                                               ; preds = %.sink.split43.i, %50
  %68 = call fastcc zeroext i1 @HIDAPI_DriverPS5_InternalSendJoystickEffect(ptr noundef nonnull %0, ptr noundef nonnull %5, i32 noundef 47, i1 noundef zeroext false) #11
  br label %HIDAPI_DriverPS5_UpdateEffects.exit

HIDAPI_DriverPS5_UpdateEffects.exit:              ; preds = %22, %67
  call void @llvm.lifetime.end.p0(i64 47, ptr nonnull %5) #9
  br label %69

69:                                               ; preds = %HIDAPI_DriverPS5_UpdateEffects.exit, %4
  ret void
}